target datalayout = "e-m:e-p270:32:32-p271:32:32-p272:64:64-i64:64-i128:128-f80:128-n8:16:32:64-S128"
target triple = "x86_64-pc-linux-gnu"

%"class.rocksdb::Slice" = type { ptr, i64 }
%"class.rocksdb::BlockHandle" = type { i64, i64 }
%"class.std::unique_ptr.2" = type { %"struct.std::__uniq_ptr_data.3" }
%"struct.std::__uniq_ptr_data.3" = type { %"class.std::__uniq_ptr_impl.4" }
%"class.std::__uniq_ptr_impl.4" = type { %"class.std::tuple.5" }
%"class.std::tuple.5" = type { %"struct.std::_Tuple_impl.6" }
%"struct.std::_Tuple_impl.6" = type { %"struct.std::_Head_base.9" }
%"struct.std::_Head_base.9" = type { ptr }
%"class.rocksdb::Status" = type { i8, i8, i8, i8, i8, i8, %"class.std::unique_ptr.2" }
%"class.rocksdb::FilterBlockReader" = type { ptr }
%"class.rocksdb::CachableEntry" = type <{ ptr, ptr, ptr, i8, [7 x i8] }>
%"class.rocksdb::FilterBlockReaderCommon" = type <{ %"class.rocksdb::FilterBlockReader", ptr, %"class.rocksdb::CachableEntry", i64, i8, [7 x i8] }>
%"class.std::unique_ptr.55" = type { %"struct.std::__uniq_ptr_data.56" }
%"struct.std::__uniq_ptr_data.56" = type { %"class.std::__uniq_ptr_impl.57" }
%"class.std::__uniq_ptr_impl.57" = type { %"class.std::tuple.58" }
%"class.std::tuple.58" = type { %"struct.std::_Tuple_impl.59" }
%"struct.std::_Tuple_impl.59" = type { %"struct.std::_Head_base.62" }
%"struct.std::_Head_base.62" = type { ptr }
%"struct.rocksdb::BlockBasedTable::Rep" = type { ptr, ptr, %"struct.rocksdb::BlockBasedTableOptions", ptr, ptr, %"class.rocksdb::Status", %"class.std::unique_ptr.107", %"class.rocksdb::OffsetableCacheKey", %"struct.rocksdb::PersistentCacheOptions", %"class.rocksdb::Footer", %"class.std::unique_ptr.115", %"class.std::unique_ptr.55", %"class.std::unique_ptr.123", i32, %"class.rocksdb::BlockHandle", %"class.rocksdb::BlockHandle", %"class.std::shared_ptr.131", %"class.rocksdb::SeqnoToTimeMapping", %"class.rocksdb::BlockHandle", i8, i8, i8, %"class.std::shared_ptr.140", %"class.std::shared_ptr.143", %"struct.rocksdb::BlockCreateContext", i64, i64, i32, %"class.rocksdb::Slice", %"class.rocksdb::Slice", i8, i8, i8, i8, i8, i8, i8, %"class.rocksdb::RelaxedAtomic", %"class.std::unique_ptr.146" }
%"struct.rocksdb::BlockBasedTableOptions" = type { %"class.std::shared_ptr", i8, i8, i8, i8, %"struct.rocksdb::MetadataCacheOptions", i8, i8, double, i8, i8, %"class.std::shared_ptr.95", %"class.std::shared_ptr.98", i64, i32, i32, i32, i64, %"struct.rocksdb::CacheUsageOptions", i8, i8, i8, i8, %"class.std::shared_ptr.104", i8, i8, i8, i32, i32, i8, i8, i8, i64, i8, i64, i64 }
%"class.std::shared_ptr" = type { %"class.std::__shared_ptr" }
%"class.std::__shared_ptr" = type { ptr, %"class.std::__shared_count" }
%"class.std::__shared_count" = type { ptr }
%"struct.rocksdb::MetadataCacheOptions" = type { i32, i32, i32 }
%"class.std::shared_ptr.95" = type { %"class.std::__shared_ptr.96" }
%"class.std::__shared_ptr.96" = type { ptr, %"class.std::__shared_count" }
%"class.std::shared_ptr.98" = type { %"class.std::__shared_ptr.99" }
%"class.std::__shared_ptr.99" = type { ptr, %"class.std::__shared_count" }
%"struct.rocksdb::CacheUsageOptions" = type { %"struct.rocksdb::CacheEntryRoleOptions", %"class.std::map" }
%"struct.rocksdb::CacheEntryRoleOptions" = type { i32 }
%"class.std::map" = type { %"class.std::_Rb_tree" }
%"class.std::_Rb_tree" = type { %"struct.std::_Rb_tree<rocksdb::CacheEntryRole, std::pair<const rocksdb::CacheEntryRole, rocksdb::CacheEntryRoleOptions>, std::_Select1st<std::pair<const rocksdb::CacheEntryRole, rocksdb::CacheEntryRoleOptions>>, std::less<rocksdb::CacheEntryRole>>::_Rb_tree_impl" }
%"struct.std::_Rb_tree<rocksdb::CacheEntryRole, std::pair<const rocksdb::CacheEntryRole, rocksdb::CacheEntryRoleOptions>, std::_Select1st<std::pair<const rocksdb::CacheEntryRole, rocksdb::CacheEntryRoleOptions>>, std::less<rocksdb::CacheEntryRole>>::_Rb_tree_impl" = type { [8 x i8], %"struct.std::_Rb_tree_header" }
%"struct.std::_Rb_tree_header" = type { %"struct.std::_Rb_tree_node_base", i64 }
%"struct.std::_Rb_tree_node_base" = type { i32, ptr, ptr, ptr }
%"class.std::shared_ptr.104" = type { %"class.std::__shared_ptr.105" }
%"class.std::__shared_ptr.105" = type { ptr, %"class.std::__shared_count" }
%"class.std::unique_ptr.107" = type { %"struct.std::__uniq_ptr_data.108" }
%"struct.std::__uniq_ptr_data.108" = type { %"class.std::__uniq_ptr_impl.109" }
%"class.std::__uniq_ptr_impl.109" = type { %"class.std::tuple.110" }
%"class.std::tuple.110" = type { %"struct.std::_Tuple_impl.111" }
%"struct.std::_Tuple_impl.111" = type { %"struct.std::_Head_base.114" }
%"struct.std::_Head_base.114" = type { ptr }
%"class.rocksdb::OffsetableCacheKey" = type { %"class.rocksdb::CacheKey" }
%"class.rocksdb::CacheKey" = type { i64, i64 }
%"struct.rocksdb::PersistentCacheOptions" = type { %"class.std::shared_ptr.98", %"class.rocksdb::OffsetableCacheKey", ptr }
%"class.rocksdb::Footer" = type <{ i64, i32, i32, %"class.rocksdb::BlockHandle", %"class.rocksdb::BlockHandle", i32, i8, [3 x i8] }>
%"class.std::unique_ptr.115" = type { %"struct.std::__uniq_ptr_data.116" }
%"struct.std::__uniq_ptr_data.116" = type { %"class.std::__uniq_ptr_impl.117" }
%"class.std::__uniq_ptr_impl.117" = type { %"class.std::tuple.118" }
%"class.std::tuple.118" = type { %"struct.std::_Tuple_impl.119" }
%"struct.std::_Tuple_impl.119" = type { %"struct.std::_Head_base.122" }
%"struct.std::_Head_base.122" = type { ptr }
%"class.std::unique_ptr.123" = type { %"struct.std::__uniq_ptr_data.124" }
%"struct.std::__uniq_ptr_data.124" = type { %"class.std::__uniq_ptr_impl.125" }
%"class.std::__uniq_ptr_impl.125" = type { %"class.std::tuple.126" }
%"class.std::tuple.126" = type { %"struct.std::_Tuple_impl.127" }
%"struct.std::_Tuple_impl.127" = type { %"struct.std::_Head_base.130" }
%"struct.std::_Head_base.130" = type { ptr }
%"class.std::shared_ptr.131" = type { %"class.std::__shared_ptr.132" }
%"class.std::__shared_ptr.132" = type { ptr, %"class.std::__shared_count" }
%"class.rocksdb::SeqnoToTimeMapping" = type <{ i64, i64, %"class.std::deque.134", i8, [7 x i8] }>
%"class.std::deque.134" = type { %"class.std::_Deque_base.135" }
%"class.std::_Deque_base.135" = type { %"struct.std::_Deque_base<rocksdb::SeqnoToTimeMapping::SeqnoTimePair, std::allocator<rocksdb::SeqnoToTimeMapping::SeqnoTimePair>>::_Deque_impl" }
%"struct.std::_Deque_base<rocksdb::SeqnoToTimeMapping::SeqnoTimePair, std::allocator<rocksdb::SeqnoToTimeMapping::SeqnoTimePair>>::_Deque_impl" = type { %"struct.std::_Deque_base<rocksdb::SeqnoToTimeMapping::SeqnoTimePair, std::allocator<rocksdb::SeqnoToTimeMapping::SeqnoTimePair>>::_Deque_impl_data" }
%"struct.std::_Deque_base<rocksdb::SeqnoToTimeMapping::SeqnoTimePair, std::allocator<rocksdb::SeqnoToTimeMapping::SeqnoTimePair>>::_Deque_impl_data" = type { ptr, i64, %"struct.std::_Deque_iterator.139", %"struct.std::_Deque_iterator.139" }
%"struct.std::_Deque_iterator.139" = type { ptr, ptr, ptr, ptr }
%"class.std::shared_ptr.140" = type { %"class.std::__shared_ptr.141" }
%"class.std::__shared_ptr.141" = type { ptr, %"class.std::__shared_count" }
%"class.std::shared_ptr.143" = type { %"class.std::__shared_ptr.144" }
%"class.std::__shared_ptr.144" = type { ptr, %"class.std::__shared_count" }
%"struct.rocksdb::BlockCreateContext" = type { ptr, ptr, ptr, ptr, ptr, i32, i8, i8, i8, i8 }
%"class.rocksdb::RelaxedAtomic" = type { %"struct.std::atomic" }
%"struct.std::atomic" = type { %"struct.std::__atomic_base" }
%"struct.std::__atomic_base" = type { i32 }
%"class.std::unique_ptr.146" = type { %"struct.std::__uniq_ptr_data.147" }
%"struct.std::__uniq_ptr_data.147" = type { %"class.std::__uniq_ptr_impl.148" }
%"class.std::__uniq_ptr_impl.148" = type { %"class.std::tuple.149" }
%"class.std::tuple.149" = type { %"struct.std::_Tuple_impl.150" }
%"struct.std::_Tuple_impl.150" = type { %"struct.std::_Head_base.153" }
%"struct.std::_Head_base.153" = type { ptr }
%"class.rocksdb::BlockBasedTable" = type { %"class.rocksdb::TableReader", ptr, ptr }
%"class.rocksdb::TableReader" = type { ptr }

; Function Attrs: mustprogress nounwind uwtable
define linkonce_odr noundef ptr @_ZNK7rocksdb15BlockBasedTable7get_repEv(ptr noundef nonnull align 8 dereferenceable(24) %0) #4 comdat align 2 {
  %2 = alloca ptr, align 8
  store ptr %0, ptr %2, align 8, !tbaa !155
  %3 = load ptr, ptr %2, align 8
  %4 = getelementptr inbounds nuw %"class.rocksdb::BlockBasedTable", ptr %3, i32 0, i32 1
  %5 = load ptr, ptr %4, align 8, !tbaa !344
  ret ptr %5
}

; Function Attrs: mustprogress nounwind uwtable
define linkonce_odr noundef ptr @_ZNK7rocksdb23FilterBlockReaderCommonINS_27Block_kFilterPartitionIndexEE5tableEv(ptr noundef nonnull align 8 dereferenceable(57) %0) #4 comdat align 2 {
  %2 = alloca ptr, align 8
  store ptr %0, ptr %2, align 8, !tbaa !159
  %3 = load ptr, ptr %2, align 8
  %4 = getelementptr inbounds nuw %"class.rocksdb::FilterBlockReaderCommon", ptr %3, i32 0, i32 1
  %5 = load ptr, ptr %4, align 8, !tbaa !161
  ret ptr %5
}

; Function Attrs: mustprogress uwtable
define noundef ptr @_ZNK7rocksdb28PartitionedFilterBlockReader19internal_comparatorEv(ptr noundef nonnull align 8 dereferenceable(120) %0) #6 align 2 {
  %2 = alloca ptr, align 8
  store ptr %0, ptr %2, align 8, !tbaa !153
  %3 = load ptr, ptr %2, align 8
  %4 = call noundef ptr @_ZNK7rocksdb23FilterBlockReaderCommonINS_27Block_kFilterPartitionIndexEE5tableEv(ptr noundef nonnull align 8 dereferenceable(57) %3)
  %5 = call noundef ptr @_ZNK7rocksdb15BlockBasedTable7get_repEv(ptr noundef nonnull align 8 dereferenceable(24) %4)
  %6 = getelementptr inbounds nuw %"struct.rocksdb::BlockBasedTable::Rep", ptr %5, i32 0, i32 4
  %7 = load ptr, ptr %6, align 8, !tbaa !246
  ret ptr %7
}